(dp1
S'test'
p2
(lp3
I269
aI289
aI268
aI369
aI428
aI483
aI411
aI496
aI763
aI225
aI291
aI848
aI682
aI971
aI509
aI501
aI892
aI725
aI940
aI588
aI345
aI305
aI172
aI525
aI42
aI929
aI563
aI580
aI33
aI661
aI916
aI328
aI862
aI737
aI777
aI304
aI363
aI275
aI585
aI85
aI184
aI218
aI480
aI7
aI735
aI853
aI587
aI124
aI646
aI283
aI889
aI442
aI410
aI701
aI609
aI606
aI906
aI10
aI406
aI502
aI109
aI427
aI395
aI163
aI237
aI88
aI600
aI459
aI575
aI61
aI105
aI911
aI436
aI624
aI830
aI887
aI3
aI171
aI181
aI12
aI355
aI610
aI426
aI678
aI21
aI69
aI151
aI758
aI520
aI191
aI446
aI214
aI621
aI373
aI894
aI358
aI46
aI299
aI570
aI353
aI215
aI914
aI912
aI775
aI782
aI349
aI0
aI63
aI366
aI845
aI381
aI101
aI170
aI842
aI253
aI900
aI137
aI134
aI13
aI148
aI885
aI108
aI729
aI863
aI315
aI440
aI627
aI115
aI902
aI158
aI773
aI519
aI120
aI861
aI994
aI243
aI771
aI334
aI597
aI17
aI875
aI1
aI617
aI281
aI230
aI983
aI344
aI882
aI112
aI849
aI531
aI234
aI416
aI689
aI252
aI444
aI676
aI307
aI384
aI23
aI210
aI974
aI138
aI644
aI605
aI999
aI325
aI695
aI421
aI121
aI468
aI593
aI396
aI533
aI733
aI988
aI290
aI592
aI485
aI40
aI193
aI286
aI521
aI155
aI942
aI454
aI346
aI561
aI880
aI973
aI29
aI98
aI104
aI639
aI72
aI402
aI169
aI946
aI881
aI656
asS'train'
p4
(lp5
I731
aI756
aI890
aI24
aI494
aI375
aI503
aI727
aI547
aI927
aI965
aI767
aI858
aI787
aI259
aI684
aI814
aI980
aI846
aI251
aI665
aI127
aI220
aI742
aI450
aI641
aI297
aI817
aI87
aI57
aI553
aI360
aI11
aI685
aI93
aI932
aI469
aI18
aI264
aI310
aI53
aI357
aI692
aI650
aI351
aI173
aI795
aI212
aI66
aI637
aI288
aI910
aI236
aI487
aI116
aI574
aI68
aI541
aI372
aI716
aI62
aI970
aI131
aI50
aI550
aI631
aI347
aI643
aI424
aI96
aI324
aI119
aI9
aI274
aI474
aI871
aI783
aI390
aI821
aI602
aI103
aI316
aI95
aI354
aI254
aI386
aI47
aI394
aI785
aI886
aI492
aI435
aI759
aI143
aI690
aI89
aI287
aI350
aI126
aI667
aI226
aI91
aI56
aI321
aI43
aI722
aI623
aI590
aI728
aI164
aI129
aI74
aI797
aI872
aI455
aI365
aI571
aI52
aI201
aI486
aI666
aI925
aI162
aI859
aI634
aI857
aI762
aI125
aI918
aI460
aI856
aI300
aI489
aI618
aI267
aI564
aI362
aI130
aI778
aI493
aI100
aI596
aI147
aI958
aI432
aI901
aI504
aI888
aI972
aI111
aI753
aI476
aI208
aI374
aI90
aI168
aI398
aI422
aI506
aI996
aI532
aI465
aI407
aI761
aI543
aI517
aI182
aI936
aI510
aI750
aI113
aI233
aI679
aI824
aI837
aI306
aI239
aI799
aI779
aI586
aI947
aI229
aI907
aI14
aI776
aI962
aI453
aI240
aI989
aI732
aI516
aI616
aI960
aI393
aI67
aI838
aI245
aI899
aI569
aI110
aI957
aI128
aI687
aI412
aI860
aI342
aI144
aI559
aI536
aI959
aI769
aI420
aI367
aI636
aI2
aI132
aI322
aI282
aI475
aI348
aI806
aI481
aI135
aI438
aI792
aI65
aI123
aI768
aI633
aI41
aI976
aI668
aI408
aI309
aI231
aI760
aI706
aI931
aI478
aI77
aI335
aI477
aI54
aI204
aI528
aI566
aI632
aI238
aI15
aI707
aI332
aI712
aI256
aI292
aI364
aI205
aI317
aI437
aI150
aI985
aI997
aI409
aI491
aI726
aI263
aI97
aI200
aI271
aI836
aI38
aI202
aI83
aI174
aI847
aI628
aI840
aI285
aI318
aI518
aI793
aI55
aI20
aI429
aI577
aI352
aI557
aI537
aI635
aI820
aI990
aI277
aI524
aI539
aI511
aI663
aI466
aI117
aI843
aI754
aI781
aI986
aI674
aI417
aI99
aI387
aI922
aI966
aI710
aI921
aI471
aI896
aI159
aI186
aI615
aI654
aI392
aI998
aI472
aI60
aI59
aI545
aI954
aI844
aI704
aI920
aI399
aI977
aI708
aI961
aI301
aI883
aI829
aI266
aI512
aI552
aI905
aI371
aI854
aI755
aI891
aI527
aI705
aI80
aI589
aI607
aI255
aI34
aI686
aI490
aI167
aI198
aI581
aI319
aI361
aI505
aI166
aI680
aI542
aI975
aI604
aI770
aI832
aI601
aI622
aI619
aI179
aI696
aI713
aI982
aI723
aI161
aI258
aI479
aI874
aI224
aI904
aI183
aI612
aI463
aI294
aI943
aI298
aI908
aI145
aI595
aI698
aI329
aI313
aI382
aI613
aI642
aI49
aI893
aI449
aI649
aI192
aI441
aI810
aI720
aI919
aI146
aI78
aI804
aI25
aI260
aI470
aI284
aI915
aI197
aI246
aI51
aI968
aI433
aI567
aI582
aI448
aI4
aI950
aI558
aI320
aI851
aI579
aI58
aI556
aI188
aI978
aI452
aI808
aI697
aI296
aI211
aI22
aI963
aI736
aI757
aI807
aI816
aI207
aI199
aI877
aI801
aI8
aI156
aI864
aI232
aI343
aI549
aI71
aI647
aI629
aI513
aI928
aI419
aI464
aI122
aI76
aI780
aI48
aI955
aI327
aI739
aI620
aI26
aI873
aI457
aI659
aI794
aI833
aI909
aI423
aI336
aI235
aI265
aI276
aI176
aI242
aI341
aI388
aI136
aI688
aI945
aI522
aI815
aI669
aI738
aI730
aI969
aI249
aI740
aI917
aI813
aI431
aI377
aI405
aI992
aI944
aI44
aI951
aI415
aI223
aI657
aI439
aI924
aI850
aI645
aI247
aI991
aI380
aI572
aI764
aI142
aI671
aI800
aI278
aI400
aI529
aI648
aI5
aI937
aI403
aI295
aI822
aI404
aI709
aI898
aI178
aI562
aI652
aI786
aI70
aI662
aI379
aI391
aI614
aI884
aI217
aI831
aI84
aI855
aI933
aI903
aI488
aI608
aI941
aI16
aI544
aI952
aI554
aI447
aI565
aI31
aI27
aI866
aI743
aI414
aI272
aI664
aI724
aI774
aI818
aI413
aI302
aI248
aI36
aI995
aI625
aI798
aI673
aI984
aI157
aI339
aI789
aI418
aI331
aI389
aI852
aI675
aI515
aI473
aI508
aI196
aI987
aI765
aI700
aI578
aI187
aI630
aI964
aI293
aI434
aI102
aI967
aI694
aI82
aI655
aI262
aI913
aI711
aI923
aI378
aI935
aI745
aI337
aI323
aI250
aI79
aI805
aI747
aI228
aI979
aI869
aI495
aI568
aI180
aI835
aI467
aI482
aI227
aI584
aI719
aI92
aI141
aI865
aI717
aI195
aI744
aI261
aI526
aI594
aI356
aI819
aI213
aI751
aI425
aI752
aI209
aI216
aI715
aI834
aI949
aI546
aI651
aI153
aI948
aI75
aI340
aI333
aI703
aI28
aI530
aI368
aI681
aI6
aI312
aI573
aI94
aI219
aI677
aI385
aI826
aI383
aI462
aI451
aI926
aI772
aI591
aI376
aI699
aI458
aI118
aI870
aI154
aI555
aI359
aI784
aI823
aI499
aI658
aI930
aI534
aI160
aI598
aI244
aI443
aI401
aI221
aI560
aI445
aI165
aI538
aI185
aI611
aI484
aI876
aI430
aI189
aI35
aI461
aI326
aI30
aI953
aI867
aI279
aI791
aI827
aI981
aI691
aI626
aI152
aI81
aI841
aI273
aI670
aI825
aI741
aI796
aI811
aI934
aI672
aI879
aI839
aI190
aI895
aI802
aI107
aI203
aI812
aI583
aI497
aI139
aI660
aI868
aI714
aI897
aI311
aI638
aI721
aI206
aI514
aI19
aI766
aI803
aI456
aI241
aI397
aI938
aI993
aI540
aI270
aI576
aI39
aI45
aI599
aI37
aI114
aI653
aI523
aI551
aI303
aI308
aI828
aI939
aI748
aI257
aI86
aI330
aI640
aI140
aI73
aI498
aI702
aI175
aI788
aI338
aI106
aI32
aI500
aI280
aI718
aI194
aI746
aI314
aI507
aI603
aI809
aI683
aI548
aI64
aI878
aI956
aI749
aI133
aI734
aI535
aI177
aI693
aI149
aI790
aI222
aI370
asS'dev'
p6
(lp7
s.